Certificate:
    Data:
        Version: 3 (0x2)
        Serial Number:
            70:50:03:37:4e:3a:9d:f1:3a:07:32:7e:24:27:13:b8:9a:2d:70:5c
        Signature Algorithm: sha256WithRSAEncryption
        Issuer: CN = localhost
        Validity
            Not Before: Jan  2 18:09:33 2021 GMT
            Not After : Feb  1 18:09:33 2021 GMT
        Subject: CN = localhost
        Subject Public Key Info:
            Public Key Algorithm: rsaEncryption
                RSA Public-Key: (2048 bit)
                Modulus:
                    00:e0:ae:18:50:a6:7c:f1:12:bf:b0:51:28:fc:7f:
                    73:dc:95:07:e1:e2:ca:55:4c:7b:f9:56:e7:61:0b:
                    ae:ae:cf:04:c5:30:06:87:56:3e:f7:5e:5c:e6:6e:
                    68:19:60:fc:e2:14:1f:23:b0:b3:d7:7d:37:96:83:
                    f9:75:b9:ad:b1:93:1d:c5:42:86:2c:f1:a9:cb:f1:
                    9a:ce:0f:1e:09:e7:fb:d9:e9:6b:db:b6:03:0e:67:
                    d5:a3:50:03:d1:ed:3a:5b:52:8b:5a:bd:b5:32:68:
                    49:c5:2f:6d:0d:b1:3e:c2:12:fe:b9:23:99:4f:97:
                    74:49:cc:71:95:c5:1f:7d:5e:2a:c0:31:0d:f2:18:
                    2c:1c:9f:d5:a5:2c:e4:2a:a9:47:b4:7a:e1:db:d1:
                    12:d1:bc:01:aa:ed:24:83:1f:ed:25:1a:77:19:9a:
                    b8:23:0e:30:fb:66:39:c9:5a:29:0a:f7:a5:75:d4:
                    a0:74:a8:68:07:1b:76:d1:8d:fa:ea:4b:52:59:6c:
                    da:a4:ff:73:9c:00:dd:cd:35:9e:02:1c:b8:a9:82:
                    b6:7a:ca:90:5a:90:ec:b4:4d:66:80:18:6f:4d:03:
                    18:1f:1b:56:f9:96:bb:79:63:b9:31:cd:a1:1f:50:
                    6f:f3:0c:38:b8:58:8e:f0:35:87:4e:8b:3a:14:ce:
                    71:21
                Exponent: 65537 (0x10001)
        X509v3 extensions:
            X509v3 Subject Key Identifier: 
                89:A7:D3:81:A9:A6:0E:2E:EC:2E:12:6C:E6:D8:65:C9:93:8A:08:04
            X509v3 Authority Key Identifier: 
                keyid:89:A7:D3:81:A9:A6:0E:2E:EC:2E:12:6C:E6:D8:65:C9:93:8A:08:04

            X509v3 Basic Constraints: critical
                CA:TRUE
    Signature Algorithm: sha256WithRSAEncryption
         a2:42:9f:4a:f5:0d:57:0c:dc:b8:89:86:de:2b:da:31:40:83:
         d9:da:a4:e2:5e:6d:36:3a:49:d1:93:91:f9:f9:c3:8c:b1:3d:
         66:0d:7e:70:ef:7c:fc:f5:78:90:99:22:9c:37:bc:8d:24:97:
         f8:e9:bf:b7:e9:03:c9:7e:87:82:23:6f:9e:bc:d4:b1:c5:85:
         10:93:32:c7:0f:67:53:1b:88:67:b3:90:43:dc:67:7f:15:e4:
         df:df:9b:31:ae:c8:08:4f:86:31:b5:72:c8:c1:4f:ea:9b:5a:
         70:7d:9c:f9:4f:8d:80:a8:ac:f0:84:4d:9e:04:a6:53:a8:67:
         15:8d:e6:d4:0c:70:0a:88:7e:26:8a:aa:6a:ec:48:b5:71:c4:
         89:e8:f6:eb:37:5a:9f:24:d1:a7:e6:fe:c6:18:15:d7:0b:a0:
         56:5f:c3:59:2f:32:10:99:08:b3:3d:d4:e5:27:67:8a:0b:70:
         b7:c8:af:fc:7e:c1:c8:ef:6c:b5:25:df:7c:9a:61:e5:29:15:
         09:9a:ac:11:03:7b:96:65:50:67:a9:8c:5c:fd:4d:4a:63:46:
         ad:b5:71:e0:d7:f3:65:eb:bc:fe:d6:70:56:52:3f:1a:fe:df:
         a8:5e:3b:79:1a:22:7f:90:36:30:08:04:62:7c:18:4f:a8:d6:
         d0:5d:7a:d2
-----BEGIN CERTIFICATE-----
MIIDCTCCAfGgAwIBAgIUcFADN046nfE6BzJ+JCcTuJotcFwwDQYJKoZIhvcNAQEL
BQAwFDESMBAGA1UEAwwJbG9jYWxob3N0MB4XDTIxMDEwMjE4MDkzM1oXDTIxMDIw
MTE4MDkzM1owFDESMBAGA1UEAwwJbG9jYWxob3N0MIIBIjANBgkqhkiG9w0BAQEF
AAOCAQ8AMIIBCgKCAQEA4K4YUKZ88RK/sFEo/H9z3JUH4eLKVUx7+VbnYQuurs8E
xTAGh1Y+915c5m5oGWD84hQfI7Cz1303loP5dbmtsZMdxUKGLPGpy/Gazg8eCef7
2elr27YDDmfVo1AD0e06W1KLWr21MmhJxS9tDbE+whL+uSOZT5d0ScxxlcUffV4q
wDEN8hgsHJ/VpSzkKqlHtHrh29ES0bwBqu0kgx/tJRp3GZq4Iw4w+2Y5yVopCvel
ddSgdKhoBxt20Y366ktSWWzapP9znADdzTWeAhy4qYK2esqQWpDstE1mgBhvTQMY
HxtW+Za7eWO5Mc2hH1Bv8ww4uFiO8DWHTos6FM5xIQIDAQABo1MwUTAdBgNVHQ4E
FgQUiafTgammDi7sLhJs5thlyZOKCAQwHwYDVR0jBBgwFoAUiafTgammDi7sLhJs
5thlyZOKCAQwDwYDVR0TAQH/BAUwAwEB/zANBgkqhkiG9w0BAQsFAAOCAQEAokKf
SvUNVwzcuImG3ivaMUCD2dqk4l5tNjpJ0ZOR+fnDjLE9Zg1+cO98/PV4kJkinDe8
jSSX+Om/t+kDyX6HgiNvnrzUscWFEJMyxw9nUxuIZ7OQQ9xnfxXk39+bMa7ICE+G
MbVyyMFP6ptacH2c+U+NgKis8IRNngSmU6hnFY3m1AxwCoh+JoqqauxItXHEiej2
6zdanyTRp+b+xhgV1wugVl/DWS8yEJkIsz3U5Sdnigtwt8iv/H7ByO9stSXffJph
5SkVCZqsEQN7lmVQZ6mMXP1NSmNGrbVx4NfzZeu8/tZwVlI/Gv7fqF47eRoif5A2
MAgEYnwYT6jW0F160g==
-----END CERTIFICATE-----
